target datalayout = "e-m:e-p270:32:32-p271:32:32-p272:64:64-i64:64-i128:128-f80:128-n8:16:32:64-S128"
target triple = "x86_64-unknown-linux-gnu"

%"class.std::ios_base" = type { ptr, i64, i64, i32, i32, i32, ptr, %"struct.std::ios_base::_Words", [8 x %"struct.std::ios_base::_Words"], i32, ptr, %"class.std::locale" }
%"struct.std::ios_base::_Words" = type { ptr, i64 }
%"class.std::locale" = type { ptr }

$_ZNSt11char_traitsIcE6lengthEPKc = comdat any

$_ZStorSt12_Ios_IostateS_ = comdat any

$_ZNKSt8ios_base5widthEv = comdat any

@.str = private unnamed_addr constant [4 x i8] c"IMM\00", align 1
@.str.1 = private unnamed_addr constant [4 x i8] c"ASX\00", align 1
@.str.2 = private unnamed_addr constant [7 x i8] c"Custom\00", align 1
@.str.3 = private unnamed_addr constant [9 x i8] c"Unknown(\00", align 1

; Function Attrs: mustprogress uwtable
define noundef nonnull align 8 dereferenceable(8) ptr @_ZN8QuantLiblsERSoNS_7Futures4TypeE(ptr noundef nonnull align 8 dereferenceable(8) %out, i32 noundef %f) #0 {
entry:
  %retval = alloca ptr, align 8
  %out.addr = alloca ptr, align 8
  %f.addr = alloca i32, align 4
  store ptr %out, ptr %out.addr, align 8, !tbaa !3
  store i32 %f, ptr %f.addr, align 4, !tbaa !7
  %0 = load i32, ptr %f.addr, align 4, !tbaa !7
  switch i32 %0, label %sw.default [
    i32 0, label %sw.bb
    i32 1, label %sw.bb1
    i32 2, label %sw.bb3
  ]

sw.bb:                                            ; preds = %entry
  %1 = load ptr, ptr %out.addr, align 8, !tbaa !3
  %call = call noundef nonnull align 8 dereferenceable(8) ptr @_ZStlsISt11char_traitsIcEERSt13basic_ostreamIcT_ES5_PKc(ptr noundef nonnull align 8 dereferenceable(8) %1, ptr noundef @.str)
  store ptr %call, ptr %retval, align 8
  br label %return

sw.bb1:                                           ; preds = %entry
  %2 = load ptr, ptr %out.addr, align 8, !tbaa !3
  %call2 = call noundef nonnull align 8 dereferenceable(8) ptr @_ZStlsISt11char_traitsIcEERSt13basic_ostreamIcT_ES5_PKc(ptr noundef nonnull align 8 dereferenceable(8) %2, ptr noundef @.str.1)
  store ptr %call2, ptr %retval, align 8
  br label %return

sw.bb3:                                           ; preds = %entry
  %3 = load ptr, ptr %out.addr, align 8, !tbaa !3
  %call4 = call noundef nonnull align 8 dereferenceable(8) ptr @_ZStlsISt11char_traitsIcEERSt13basic_ostreamIcT_ES5_PKc(ptr noundef nonnull align 8 dereferenceable(8) %3, ptr noundef @.str.2)
  store ptr %call4, ptr %retval, align 8
  br label %return

sw.default:                                       ; preds = %entry
  %4 = load ptr, ptr %out.addr, align 8, !tbaa !3
  %call5 = call noundef nonnull align 8 dereferenceable(8) ptr @_ZStlsISt11char_traitsIcEERSt13basic_ostreamIcT_ES5_PKc(ptr noundef nonnull align 8 dereferenceable(8) %4, ptr noundef @.str.3)
  %5 = load i32, ptr %f.addr, align 4, !tbaa !7
  %call6 = call noundef nonnull align 8 dereferenceable(8) ptr @_ZNSolsEi(ptr noundef nonnull align 8 dereferenceable(8) %call5, i32 noundef %5)
  %call7 = call noundef nonnull align 8 dereferenceable(8) ptr @_ZStlsISt11char_traitsIcEERSt13basic_ostreamIcT_ES5_c(ptr noundef nonnull align 8 dereferenceable(8) %call6, i8 noundef signext 41)
  store ptr %call7, ptr %retval, align 8
  br label %return

return:                                           ; preds = %sw.default, %sw.bb3, %sw.bb1, %sw.bb
  %6 = load ptr, ptr %retval, align 8
  ret ptr %6
}

; Function Attrs: inlinehint mustprogress uwtable
define available_externally noundef nonnull align 8 dereferenceable(8) ptr @_ZStlsISt11char_traitsIcEERSt13basic_ostreamIcT_ES5_PKc(ptr noundef nonnull align 8 dereferenceable(8) %__out, ptr noundef %__s) #1 {
entry:
  %__out.addr = alloca ptr, align 8
  %__s.addr = alloca ptr, align 8
  store ptr %__out, ptr %__out.addr, align 8, !tbaa !3
  store ptr %__s, ptr %__s.addr, align 8, !tbaa !3
  %0 = load ptr, ptr %__s.addr, align 8, !tbaa !3
  %tobool = icmp ne ptr %0, null
  br i1 %tobool, label %if.else, label %if.then

if.then:                                          ; preds = %entry
  %1 = load ptr, ptr %__out.addr, align 8, !tbaa !3
  %vtable = load ptr, ptr %1, align 8, !tbaa !9
  %vbase.offset.ptr = getelementptr i8, ptr %vtable, i64 -24
  %vbase.offset = load i64, ptr %vbase.offset.ptr, align 8
  %add.ptr = getelementptr inbounds i8, ptr %1, i64 %vbase.offset
  call void @_ZNSt9basic_iosIcSt11char_traitsIcEE8setstateESt12_Ios_Iostate(ptr noundef nonnull align 8 dereferenceable(264) %add.ptr, i32 noundef 1)
  br label %if.end

if.else:                                          ; preds = %entry
  %2 = load ptr, ptr %__out.addr, align 8, !tbaa !3
  %3 = load ptr, ptr %__s.addr, align 8, !tbaa !3
  %4 = load ptr, ptr %__s.addr, align 8, !tbaa !3
  %call = call noundef i64 @_ZNSt11char_traitsIcE6lengthEPKc(ptr noundef %4)
  %call1 = call noundef nonnull align 8 dereferenceable(8) ptr @_ZSt16__ostream_insertIcSt11char_traitsIcEERSt13basic_ostreamIT_T0_ES6_PKS3_l(ptr noundef nonnull align 8 dereferenceable(8) %2, ptr noundef %3, i64 noundef %call)
  br label %if.end

if.end:                                           ; preds = %if.else, %if.then
  %5 = load ptr, ptr %__out.addr, align 8, !tbaa !3
  ret ptr %5
}

; Function Attrs: inlinehint mustprogress uwtable
define available_externally noundef nonnull align 8 dereferenceable(8) ptr @_ZStlsISt11char_traitsIcEERSt13basic_ostreamIcT_ES5_c(ptr noundef nonnull align 8 dereferenceable(8) %__out, i8 noundef signext %__c) #1 {
entry:
  %retval = alloca ptr, align 8
  %__out.addr = alloca ptr, align 8
  %__c.addr = alloca i8, align 1
  store ptr %__out, ptr %__out.addr, align 8, !tbaa !3
  store i8 %__c, ptr %__c.addr, align 1, !tbaa !11
  %0 = load ptr, ptr %__out.addr, align 8, !tbaa !3
  %vtable = load ptr, ptr %0, align 8, !tbaa !9
  %vbase.offset.ptr = getelementptr i8, ptr %vtable, i64 -24
  %vbase.offset = load i64, ptr %vbase.offset.ptr, align 8
  %add.ptr = getelementptr inbounds i8, ptr %0, i64 %vbase.offset
  %call = call noundef i64 @_ZNKSt8ios_base5widthEv(ptr noundef nonnull align 8 dereferenceable(216) %add.ptr)
  %cmp = icmp ne i64 %call, 0
  br i1 %cmp, label %if.then, label %if.end

if.then:                                          ; preds = %entry
  %1 = load ptr, ptr %__out.addr, align 8, !tbaa !3
  %call1 = call noundef nonnull align 8 dereferenceable(8) ptr @_ZSt16__ostream_insertIcSt11char_traitsIcEERSt13basic_ostreamIT_T0_ES6_PKS3_l(ptr noundef nonnull align 8 dereferenceable(8) %1, ptr noundef %__c.addr, i64 noundef 1)
  store ptr %call1, ptr %retval, align 8
  br label %return

if.end:                                           ; preds = %entry
  %2 = load ptr, ptr %__out.addr, align 8, !tbaa !3
  %3 = load i8, ptr %__c.addr, align 1, !tbaa !11
  %call2 = call noundef nonnull align 8 dereferenceable(8) ptr @_ZNSo3putEc(ptr noundef nonnull align 8 dereferenceable(8) %2, i8 noundef signext %3)
  %4 = load ptr, ptr %__out.addr, align 8, !tbaa !3
  store ptr %4, ptr %retval, align 8
  br label %return

return:                                           ; preds = %if.end, %if.then
  %5 = load ptr, ptr %retval, align 8
  ret ptr %5
}

declare noundef nonnull align 8 dereferenceable(8) ptr @_ZNSolsEi(ptr noundef nonnull align 8 dereferenceable(8), i32 noundef) #2

; Function Attrs: mustprogress uwtable
define available_externally void @_ZNSt9basic_iosIcSt11char_traitsIcEE8setstateESt12_Ios_Iostate(ptr noundef nonnull align 8 dereferenceable(264) %this, i32 noundef %__state) #0 align 2 {
entry:
  %this.addr = alloca ptr, align 8
  %__state.addr = alloca i32, align 4
  store ptr %this, ptr %this.addr, align 8, !tbaa !3
  store i32 %__state, ptr %__state.addr, align 4, !tbaa !12
  %this1 = load ptr, ptr %this.addr, align 8
  %call = call noundef i32 @_ZNKSt9basic_iosIcSt11char_traitsIcEE7rdstateEv(ptr noundef nonnull align 8 dereferenceable(264) %this1)
  %0 = load i32, ptr %__state.addr, align 4, !tbaa !12
  %call2 = call noundef i32 @_ZStorSt12_Ios_IostateS_(i32 noundef %call, i32 noundef %0)
  call void @_ZNSt9basic_iosIcSt11char_traitsIcEE5clearESt12_Ios_Iostate(ptr noundef nonnull align 8 dereferenceable(264) %this1, i32 noundef %call2)
  ret void
}

declare noundef nonnull align 8 dereferenceable(8) ptr @_ZSt16__ostream_insertIcSt11char_traitsIcEERSt13basic_ostreamIT_T0_ES6_PKS3_l(ptr noundef nonnull align 8 dereferenceable(8), ptr noundef, i64 noundef) #2

; Function Attrs: mustprogress nounwind uwtable
define linkonce_odr noundef i64 @_ZNSt11char_traitsIcE6lengthEPKc(ptr noundef %__s) #3 comdat align 2 {
entry:
  %__s.addr = alloca ptr, align 8
  store ptr %__s, ptr %__s.addr, align 8, !tbaa !3
  %0 = load ptr, ptr %__s.addr, align 8, !tbaa !3
  %call = call i64 @strlen(ptr noundef %0) #6
  ret i64 %call
}

declare void @_ZNSt9basic_iosIcSt11char_traitsIcEE5clearESt12_Ios_Iostate(ptr noundef nonnull align 8 dereferenceable(264), i32 noundef) #2

; Function Attrs: inlinehint mustprogress nounwind uwtable
define linkonce_odr noundef i32 @_ZStorSt12_Ios_IostateS_(i32 noundef %__a, i32 noundef %__b) #4 comdat {
entry:
  %__a.addr = alloca i32, align 4
  %__b.addr = alloca i32, align 4
  store i32 %__a, ptr %__a.addr, align 4, !tbaa !12
  store i32 %__b, ptr %__b.addr, align 4, !tbaa !12
  %0 = load i32, ptr %__a.addr, align 4, !tbaa !12
  %1 = load i32, ptr %__b.addr, align 4, !tbaa !12
  %or = or i32 %0, %1
  ret i32 %or
}

; Function Attrs: mustprogress nounwind uwtable
define available_externally noundef i32 @_ZNKSt9basic_iosIcSt11char_traitsIcEE7rdstateEv(ptr noundef nonnull align 8 dereferenceable(264) %this) #3 align 2 {
entry:
  %this.addr = alloca ptr, align 8
  store ptr %this, ptr %this.addr, align 8, !tbaa !3
  %this1 = load ptr, ptr %this.addr, align 8
  %_M_streambuf_state = getelementptr inbounds nuw %"class.std::ios_base", ptr %this1, i32 0, i32 5
  %0 = load i32, ptr %_M_streambuf_state, align 8, !tbaa !14
  ret i32 %0
}

; Function Attrs: nounwind
declare i64 @strlen(ptr noundef) #5

; Function Attrs: mustprogress nounwind uwtable
define linkonce_odr noundef i64 @_ZNKSt8ios_base5widthEv(ptr noundef nonnull align 8 dereferenceable(216) %this) #3 comdat align 2 {
entry:
  %this.addr = alloca ptr, align 8
  store ptr %this, ptr %this.addr, align 8, !tbaa !3
  %this1 = load ptr, ptr %this.addr, align 8
  %_M_width = getelementptr inbounds nuw %"class.std::ios_base", ptr %this1, i32 0, i32 2
  %0 = load i64, ptr %_M_width, align 8, !tbaa !21
  ret i64 %0
}

declare noundef nonnull align 8 dereferenceable(8) ptr @_ZNSo3putEc(ptr noundef nonnull align 8 dereferenceable(8), i8 noundef signext) #2


!llvm.module.flags = !{!0, !1, !2}

!0 = !{i32 1, !"wchar_size", i32 4}
!1 = !{i32 8, !"PIC Level", i32 2}
!2 = !{i32 7, !"uwtable", i32 2}
!3 = !{!4, !4, i64 0}
!4 = !{!"any pointer", !5, i64 0}
!5 = !{!"omnipotent char", !6, i64 0}
!6 = !{!"Simple C++ TBAA"}
!7 = !{!8, !8, i64 0}
!8 = !{!"_ZTSN8QuantLib7Futures4TypeE", !5, i64 0}
!9 = !{!10, !10, i64 0}
!10 = !{!"vtable pointer", !6, i64 0}
!11 = !{!5, !5, i64 0}
!12 = !{!13, !13, i64 0}
!13 = !{!"_ZTSSt12_Ios_Iostate", !5, i64 0}
!14 = !{!15, !13, i64 32}
!15 = !{!"_ZTSSt8ios_base", !16, i64 8, !16, i64 16, !17, i64 24, !13, i64 28, !13, i64 32, !4, i64 40, !18, i64 48, !5, i64 64, !19, i64 192, !4, i64 200, !20, i64 208}
!16 = !{!"long", !5, i64 0}
!17 = !{!"_ZTSSt13_Ios_Fmtflags", !5, i64 0}
!18 = !{!"_ZTSNSt8ios_base6_WordsE", !4, i64 0, !16, i64 8}
!19 = !{!"int", !5, i64 0}
!20 = !{!"_ZTSSt6locale", !4, i64 0}
!21 = !{!15, !16, i64 16}
