; ModuleID = 'bench/quantlib/original/futures.ll'
source_filename = "bench/quantlib/original/futures.ll"
target datalayout = "e-m:e-p270:32:32-p271:32:32-p272:64:64-i64:64-i128:128-f80:128-n8:16:32:64-S128"
target triple = "x86_64-unknown-linux-gnu"

@.str = private unnamed_addr constant [4 x i8] c"IMM\00", align 1
@.str.1 = private unnamed_addr constant [4 x i8] c"ASX\00", align 1
@.str.2 = private unnamed_addr constant [7 x i8] c"Custom\00", align 1
@.str.3 = private unnamed_addr constant [9 x i8] c"Unknown(\00", align 1

; Function Attrs: mustprogress uwtable
define noundef nonnull align 8 dereferenceable(8) ptr @_ZN8QuantLiblsERSoNS_7Futures4TypeE(ptr noundef nonnull align 8 dereferenceable(8) %out, i32 noundef %f) local_unnamed_addr #0 {
entry:
  %__c.addr.i = alloca i8, align 1
  switch i32 %f, label %sw.default [
    i32 0, label %sw.bb
    i32 1, label %sw.bb1
    i32 2, label %sw.bb3
  ]

sw.bb:                                            ; preds = %entry
  %call1.i = tail call noundef nonnull align 8 dereferenceable(8) ptr @_ZSt16__ostream_insertIcSt11char_traitsIcEERSt13basic_ostreamIT_T0_ES6_PKS3_l(ptr noundef nonnull align 8 dereferenceable(8) %out, ptr noundef nonnull @.str, i64 noundef 3)
  br label %return

sw.bb1:                                           ; preds = %entry
  %call1.i6 = tail call noundef nonnull align 8 dereferenceable(8) ptr @_ZSt16__ostream_insertIcSt11char_traitsIcEERSt13basic_ostreamIT_T0_ES6_PKS3_l(ptr noundef nonnull align 8 dereferenceable(8) %out, ptr noundef nonnull @.str.1, i64 noundef 3)
  br label %return

sw.bb3:                                           ; preds = %entry
  %call1.i8 = tail call noundef nonnull align 8 dereferenceable(8) ptr @_ZSt16__ostream_insertIcSt11char_traitsIcEERSt13basic_ostreamIT_T0_ES6_PKS3_l(ptr noundef nonnull align 8 dereferenceable(8) %out, ptr noundef nonnull @.str.2, i64 noundef 6)
  br label %return

sw.default:                                       ; preds = %entry
  %call1.i10 = tail call noundef nonnull align 8 dereferenceable(8) ptr @_ZSt16__ostream_insertIcSt11char_traitsIcEERSt13basic_ostreamIT_T0_ES6_PKS3_l(ptr noundef nonnull align 8 dereferenceable(8) %out, ptr noundef nonnull @.str.3, i64 noundef 8)
  %call6 = tail call noundef nonnull align 8 dereferenceable(8) ptr @_ZNSolsEi(ptr noundef nonnull align 8 dereferenceable(8) %out, i32 noundef %f)
  call void @llvm.lifetime.start.p0(i64 1, ptr nonnull %__c.addr.i)
  store i8 41, ptr %__c.addr.i, align 1, !tbaa !3
  %vtable.i = load ptr, ptr %call6, align 8, !tbaa !6
  %vbase.offset.ptr.i = getelementptr i8, ptr %vtable.i, i64 -24
  %vbase.offset.i = load i64, ptr %vbase.offset.ptr.i, align 8
  %add.ptr.i = getelementptr inbounds i8, ptr %call6, i64 %vbase.offset.i
  %_M_width.i.i = getelementptr inbounds nuw i8, ptr %add.ptr.i, i64 16
  %0 = load i64, ptr %_M_width.i.i, align 8, !tbaa !8
  %cmp.not.i = icmp eq i64 %0, 0
  br i1 %cmp.not.i, label %if.end.i, label %if.then.i

if.then.i:                                        ; preds = %sw.default
  %call1.i11 = call noundef nonnull align 8 dereferenceable(8) ptr @_ZSt16__ostream_insertIcSt11char_traitsIcEERSt13basic_ostreamIT_T0_ES6_PKS3_l(ptr noundef nonnull align 8 dereferenceable(8) %call6, ptr noundef nonnull %__c.addr.i, i64 noundef 1)
  br label %_ZStlsISt11char_traitsIcEERSt13basic_ostreamIcT_ES5_c.exit

if.end.i:                                         ; preds = %sw.default
  %call2.i = tail call noundef nonnull align 8 dereferenceable(8) ptr @_ZNSo3putEc(ptr noundef nonnull align 8 dereferenceable(8) %call6, i8 noundef signext 41)
  br label %_ZStlsISt11char_traitsIcEERSt13basic_ostreamIcT_ES5_c.exit

_ZStlsISt11char_traitsIcEERSt13basic_ostreamIcT_ES5_c.exit: ; preds = %if.then.i, %if.end.i
  %retval.0.i = phi ptr [ %call1.i11, %if.then.i ], [ %call6, %if.end.i ]
  call void @llvm.lifetime.end.p0(i64 1, ptr nonnull %__c.addr.i)
  br label %return

return:                                           ; preds = %_ZStlsISt11char_traitsIcEERSt13basic_ostreamIcT_ES5_c.exit, %sw.bb3, %sw.bb1, %sw.bb
  %retval.0 = phi ptr [ %retval.0.i, %_ZStlsISt11char_traitsIcEERSt13basic_ostreamIcT_ES5_c.exit ], [ %out, %sw.bb3 ], [ %out, %sw.bb1 ], [ %out, %sw.bb ]
  ret ptr %retval.0
}

declare noundef nonnull align 8 dereferenceable(8) ptr @_ZNSolsEi(ptr noundef nonnull align 8 dereferenceable(8), i32 noundef) local_unnamed_addr #1

declare noundef nonnull align 8 dereferenceable(8) ptr @_ZSt16__ostream_insertIcSt11char_traitsIcEERSt13basic_ostreamIT_T0_ES6_PKS3_l(ptr noundef nonnull align 8 dereferenceable(8), ptr noundef, i64 noundef) local_unnamed_addr #1

declare noundef nonnull align 8 dereferenceable(8) ptr @_ZNSo3putEc(ptr noundef nonnull align 8 dereferenceable(8), i8 noundef signext) local_unnamed_addr #1

; Function Attrs: nocallback nofree nosync nounwind willreturn memory(argmem: readwrite)
declare void @llvm.lifetime.start.p0(i64 immarg, ptr nocapture) #2

; Function Attrs: nocallback nofree nosync nounwind willreturn memory(argmem: readwrite)
declare void @llvm.lifetime.end.p0(i64 immarg, ptr nocapture) #2


!llvm.module.flags = !{!0, !1, !2}

!0 = !{i32 1, !"wchar_size", i32 4}
!1 = !{i32 8, !"PIC Level", i32 2}
!2 = !{i32 7, !"uwtable", i32 2}
!3 = !{!4, !4, i64 0}
!4 = !{!"omnipotent char", !5, i64 0}
!5 = !{!"Simple C++ TBAA"}
!6 = !{!7, !7, i64 0}
!7 = !{!"vtable pointer", !5, i64 0}
!8 = !{!9, !10, i64 16}
!9 = !{!"_ZTSSt8ios_base", !10, i64 8, !10, i64 16, !11, i64 24, !12, i64 28, !12, i64 32, !13, i64 40, !14, i64 48, !4, i64 64, !15, i64 192, !13, i64 200, !16, i64 208}
!10 = !{!"long", !4, i64 0}
!11 = !{!"_ZTSSt13_Ios_Fmtflags", !4, i64 0}
!12 = !{!"_ZTSSt12_Ios_Iostate", !4, i64 0}
!13 = !{!"any pointer", !4, i64 0}
!14 = !{!"_ZTSNSt8ios_base6_WordsE", !13, i64 0, !10, i64 8}
!15 = !{!"int", !4, i64 0}
!16 = !{!"_ZTSSt6locale", !13, i64 0}
